; Function Attrs: nounwind uwtable
define noalias noundef ptr @Gia_ManCreateFaninCounts(ptr noundef readonly captures(none) %0) local_unnamed_addr #2 {
  %2 = getelementptr i8, ptr %0, i64 24
  %.val16 = load i32, ptr %2, align 8, !tbaa !51
  %3 = tail call noalias dereferenceable_or_null(16) ptr @malloc(i64 noundef 16) #19
  %4 = add i32 %.val16, -1
  %or.cond.i = icmp ult i32 %4, 15
  %spec.store.select.i = select i1 %or.cond.i, i32 16, i32 %.val16
  %5 = getelementptr inbounds nuw i8, ptr %3, i64 4
  store i32 0, ptr %5, align 4, !tbaa !29
  store i32 %spec.store.select.i, ptr %3, align 8, !tbaa !53
  %.not.i = icmp eq i32 %spec.store.select.i, 0
  br i1 %.not.i, label %Vec_IntAlloc.exit, label %6

6:                                                ; preds = %1
  %7 = sext i32 %spec.store.select.i to i64
  %8 = shl nsw i64 %7, 2
  %9 = tail call noalias ptr @malloc(i64 noundef %8) #19
  br label %Vec_IntAlloc.exit

Vec_IntAlloc.exit:                                ; preds = %1, %6
  %10 = phi ptr [ %9, %6 ], [ null, %1 ]
  %11 = getelementptr inbounds nuw i8, ptr %3, i64 8
  store ptr %10, ptr %11, align 8, !tbaa !31
  %12 = getelementptr i8, ptr %0, i64 32
  %13 = icmp sgt i32 %.val16, 0
  br i1 %13, label %.lr.ph, label %.critedge

.lr.ph:                                           ; preds = %Vec_IntAlloc.exit, %Vec_IntPush.exit
  %14 = phi ptr [ %.pre.i47, %Vec_IntPush.exit ], [ %10, %Vec_IntAlloc.exit ]
  %15 = phi ptr [ %.pre.i2242, %Vec_IntPush.exit ], [ %10, %Vec_IntAlloc.exit ]
  %16 = phi ptr [ %.pre.i45.sink, %Vec_IntPush.exit ], [ %10, %Vec_IntAlloc.exit ]
  %indvars.iv = phi i64 [ %indvars.iv.next, %Vec_IntPush.exit ], [ 0, %Vec_IntAlloc.exit ]
  %.val = load ptr, ptr %12, align 8, !tbaa !30
  %.not = icmp eq ptr %.val, null
  br i1 %.not, label %.critedge, label %17

17:                                               ; preds = %.lr.ph
  %18 = getelementptr inbounds nuw %struct.Gia_Obj_t_, ptr %.val, i64 %indvars.iv
  %.val14 = load i64, ptr %18, align 4
  %19 = and i64 %.val14, 2147483648
  %.not.i17 = icmp eq i64 %19, 0
  %20 = and i64 %.val14, 536870911
  %21 = icmp ne i64 %20, 536870911
  %narrow.i = and i1 %.not.i17, %21
  br i1 %narrow.i, label %22, label %41

22:                                               ; preds = %17
  %23 = load i32, ptr %5, align 4, !tbaa !29
  %24 = load i32, ptr %3, align 8, !tbaa !53
  %25 = icmp eq i32 %23, %24
  br i1 %25, label %26, label %Vec_IntPush.exit

26:                                               ; preds = %22
  %27 = icmp slt i32 %23, 16
  br i1 %27, label %28, label %33

28:                                               ; preds = %26
  %.not9.i.i = icmp eq ptr %14, null
  br i1 %.not9.i.i, label %31, label %29

29:                                               ; preds = %28
  %30 = tail call dereferenceable_or_null(64) ptr @realloc(ptr noundef nonnull %14, i64 noundef 64) #20
  br label %Vec_IntPush.exit.sink.split60

31:                                               ; preds = %28
  %32 = tail call noalias dereferenceable_or_null(64) ptr @malloc(i64 noundef 64) #19
  br label %Vec_IntPush.exit.sink.split60

33:                                               ; preds = %26
  %34 = shl nuw nsw i32 %23, 1
  %.not9.i9.i = icmp eq ptr %14, null
  %35 = zext nneg i32 %34 to i64
  %36 = shl nuw nsw i64 %35, 2
  br i1 %.not9.i9.i, label %39, label %37

37:                                               ; preds = %33
  %38 = tail call ptr @realloc(ptr noundef nonnull %14, i64 noundef %36) #20
  br label %Vec_IntPush.exit.sink.split60

39:                                               ; preds = %33
  %40 = tail call noalias ptr @malloc(i64 noundef %36) #19
  br label %Vec_IntPush.exit.sink.split60

41:                                               ; preds = %17
  %.not.i18 = icmp ne i64 %19, 0
  %narrow.i19 = and i1 %.not.i18, %21
  %42 = load i32, ptr %5, align 4, !tbaa !29
  %43 = load i32, ptr %3, align 8, !tbaa !53
  %44 = icmp eq i32 %42, %43
  br i1 %narrow.i19, label %45, label %61

45:                                               ; preds = %41
  br i1 %44, label %46, label %Vec_IntPush.exit

46:                                               ; preds = %45
  %47 = icmp slt i32 %42, 16
  br i1 %47, label %48, label %53

48:                                               ; preds = %46
  %.not9.i.i24 = icmp eq ptr %15, null
  br i1 %.not9.i.i24, label %51, label %49

49:                                               ; preds = %48
  %50 = tail call dereferenceable_or_null(64) ptr @realloc(ptr noundef nonnull %15, i64 noundef 64) #20
  br label %Vec_IntPush.exit.sink.split60

51:                                               ; preds = %48
  %52 = tail call noalias dereferenceable_or_null(64) ptr @malloc(i64 noundef 64) #19
  br label %Vec_IntPush.exit.sink.split60

53:                                               ; preds = %46
  %54 = shl nuw nsw i32 %42, 1
  %.not9.i9.i23 = icmp eq ptr %15, null
  %55 = zext nneg i32 %54 to i64
  %56 = shl nuw nsw i64 %55, 2
  br i1 %.not9.i9.i23, label %59, label %57

57:                                               ; preds = %53
  %58 = tail call ptr @realloc(ptr noundef nonnull %15, i64 noundef %56) #20
  br label %Vec_IntPush.exit.sink.split60

59:                                               ; preds = %53
  %60 = tail call noalias ptr @malloc(i64 noundef %56) #19
  br label %Vec_IntPush.exit.sink.split60

61:                                               ; preds = %41
  br i1 %44, label %62, label %Vec_IntPush.exit

62:                                               ; preds = %61
  %63 = icmp slt i32 %42, 16
  br i1 %63, label %64, label %69

64:                                               ; preds = %62
  %.not9.i.i31 = icmp eq ptr %16, null
  br i1 %.not9.i.i31, label %67, label %65

65:                                               ; preds = %64
  %66 = tail call dereferenceable_or_null(64) ptr @realloc(ptr noundef nonnull %16, i64 noundef 64) #20
  br label %Vec_IntPush.exit.sink.split60

67:                                               ; preds = %64
  %68 = tail call noalias dereferenceable_or_null(64) ptr @malloc(i64 noundef 64) #19
  br label %Vec_IntPush.exit.sink.split60

69:                                               ; preds = %62
  %70 = shl nuw nsw i32 %42, 1
  %.not9.i9.i30 = icmp eq ptr %16, null
  %71 = zext nneg i32 %70 to i64
  %72 = shl nuw nsw i64 %71, 2
  br i1 %.not9.i9.i30, label %75, label %73

73:                                               ; preds = %69
  %74 = tail call ptr @realloc(ptr noundef nonnull %16, i64 noundef %72) #20
  br label %Vec_IntPush.exit.sink.split60

75:                                               ; preds = %69
  %76 = tail call noalias ptr @malloc(i64 noundef %72) #19
  br label %Vec_IntPush.exit.sink.split60

Vec_IntPush.exit.sink.split60:                    ; preds = %67, %65, %75, %73, %51, %49, %59, %57, %31, %29, %39, %37
  %.sink53.sink = phi ptr [ %30, %29 ], [ %32, %31 ], [ %38, %37 ], [ %40, %39 ], [ %50, %49 ], [ %52, %51 ], [ %58, %57 ], [ %60, %59 ], [ %66, %65 ], [ %68, %67 ], [ %74, %73 ], [ %76, %75 ]
  %.sink52.sink = phi i32 [ 16, %29 ], [ 16, %31 ], [ %34, %37 ], [ %34, %39 ], [ 16, %49 ], [ 16, %51 ], [ %54, %57 ], [ %54, %59 ], [ 16, %65 ], [ 16, %67 ], [ %70, %73 ], [ %70, %75 ]
  %.sink59.ph = phi i32 [ %23, %29 ], [ %23, %31 ], [ %23, %37 ], [ %23, %39 ], [ %42, %49 ], [ %42, %51 ], [ %42, %57 ], [ %42, %59 ], [ %42, %65 ], [ %42, %67 ], [ %42, %73 ], [ %42, %75 ]
  %.sink54.ph = phi i32 [ 2, %29 ], [ 2, %31 ], [ 2, %37 ], [ 2, %39 ], [ 1, %49 ], [ 1, %51 ], [ 1, %57 ], [ 1, %59 ], [ 0, %65 ], [ 0, %67 ], [ 0, %73 ], [ 0, %75 ]
  store ptr %.sink53.sink, ptr %11, align 8, !tbaa !31
  store i32 %.sink52.sink, ptr %3, align 8, !tbaa !53
  br label %Vec_IntPush.exit

Vec_IntPush.exit:                                 ; preds = %Vec_IntPush.exit.sink.split60, %61, %45, %22
  %.sink59 = phi i32 [ %23, %22 ], [ %42, %45 ], [ %42, %61 ], [ %.sink59.ph, %Vec_IntPush.exit.sink.split60 ]
  %.pre.i45.sink = phi ptr [ %14, %22 ], [ %15, %45 ], [ %16, %61 ], [ %.sink53.sink, %Vec_IntPush.exit.sink.split60 ]
  %.sink54 = phi i32 [ 2, %22 ], [ 1, %45 ], [ 0, %61 ], [ %.sink54.ph, %Vec_IntPush.exit.sink.split60 ]
  %.pre.i47 = phi ptr [ %14, %22 ], [ %14, %45 ], [ %14, %61 ], [ %.sink53.sink, %Vec_IntPush.exit.sink.split60 ]
  %.pre.i2242 = phi ptr [ %14, %22 ], [ %15, %45 ], [ %15, %61 ], [ %.sink53.sink, %Vec_IntPush.exit.sink.split60 ]
  %77 = add nsw i32 %.sink59, 1
  store i32 %77, ptr %5, align 4, !tbaa !29
  %78 = sext i32 %.sink59 to i64
  %79 = getelementptr inbounds i32, ptr %.pre.i45.sink, i64 %78
  store i32 %.sink54, ptr %79, align 4, !tbaa !34
  %indvars.iv.next = add nuw nsw i64 %indvars.iv, 1
  %80 = load i32, ptr %2, align 8, !tbaa !51
  %81 = sext i32 %80 to i64
  %82 = icmp slt i64 %indvars.iv.next, %81
  br i1 %82, label %.lr.ph, label %.critedge, !llvm.loop !54

.critedge:                                        ; preds = %.lr.ph, %Vec_IntPush.exit, %Vec_IntAlloc.exit
  ret ptr %3
}